target datalayout = "e-m:e-p270:32:32-p271:32:32-p272:64:64-i64:64-i128:128-f80:128-n8:16:32:64-S128"
target triple = "x86_64-pc-linux-gnu"

%struct.mbedtls_sha512_context = type { [2 x i64], [8 x i64], [128 x i8], i32 }

; Function Attrs: nounwind uwtable
define hidden void @mbedtls_sha512_free(ptr noundef %0) #0 {
  %2 = alloca ptr, align 8
  store ptr %0, ptr %2, align 8, !tbaa !3
  %3 = load ptr, ptr %2, align 8, !tbaa !3
  %4 = icmp eq ptr %3, null
  br i1 %4, label %5, label %6

5:                                                ; preds = %1
  br label %8

6:                                                ; preds = %1
  %7 = load ptr, ptr %2, align 8, !tbaa !3
  call void @mbedtls_platform_zeroize(ptr noundef %7, i64 noundef 216)
  br label %8

8:                                                ; preds = %6, %5
  ret void
}

; Function Attrs: alwaysinline nounwind uwtable
define internal void @mbedtls_put_unaligned_uint64(ptr noundef %0, i64 noundef %1) #5 {
  %3 = alloca ptr, align 8
  %4 = alloca i64, align 8
  store ptr %0, ptr %3, align 8, !tbaa !27
  store i64 %1, ptr %4, align 8, !tbaa !12
  %5 = load ptr, ptr %3, align 8, !tbaa !27
  call void @llvm.memcpy.p0.p0.i64(ptr align 1 %5, ptr align 8 %4, i64 8, i1 false)
  ret void
}

; Function Attrs: nounwind uwtable
define hidden i32 @mbedtls_sha512_finish(ptr noundef %0, ptr noundef %1) #0 {
  %3 = alloca ptr, align 8
  %4 = alloca ptr, align 8
  %5 = alloca i32, align 4
  %6 = alloca i32, align 4
  %7 = alloca i64, align 8
  %8 = alloca i64, align 8
  %9 = alloca i32, align 4
  store ptr %0, ptr %3, align 8, !tbaa !3
  store ptr %1, ptr %4, align 8, !tbaa !16
  call void @llvm.lifetime.start.p0(i64 4, ptr %5) #10
  store i32 -110, ptr %5, align 4, !tbaa !10
  call void @llvm.lifetime.start.p0(i64 4, ptr %6) #10
  call void @llvm.lifetime.start.p0(i64 8, ptr %7) #10
  call void @llvm.lifetime.start.p0(i64 8, ptr %8) #10
  call void @llvm.lifetime.start.p0(i64 4, ptr %9) #10
  store i32 0, ptr %9, align 4, !tbaa !10
  %10 = load ptr, ptr %3, align 8, !tbaa !3
  %11 = getelementptr inbounds nuw %struct.mbedtls_sha512_context, ptr %10, i32 0, i32 0
  %12 = getelementptr inbounds [2 x i64], ptr %11, i64 0, i64 0
  %13 = load i64, ptr %12, align 8, !tbaa !12
  %14 = and i64 %13, 127
  %15 = trunc i64 %14 to i32
  store i32 %15, ptr %6, align 4, !tbaa !10
  %16 = load ptr, ptr %3, align 8, !tbaa !3
  %17 = getelementptr inbounds nuw %struct.mbedtls_sha512_context, ptr %16, i32 0, i32 2
  %18 = load i32, ptr %6, align 4, !tbaa !10
  %19 = add i32 %18, 1
  store i32 %19, ptr %6, align 4, !tbaa !10
  %20 = zext i32 %18 to i64
  %21 = getelementptr inbounds nuw [128 x i8], ptr %17, i64 0, i64 %20
  store i8 -128, ptr %21, align 1, !tbaa !9
  %22 = load i32, ptr %6, align 4, !tbaa !10
  %23 = icmp ule i32 %22, 112
  br i1 %23, label %24, label %34

24:                                               ; preds = %2
  %25 = load ptr, ptr %3, align 8, !tbaa !3
  %26 = getelementptr inbounds nuw %struct.mbedtls_sha512_context, ptr %25, i32 0, i32 2
  %27 = getelementptr inbounds [128 x i8], ptr %26, i64 0, i64 0
  %28 = load i32, ptr %6, align 4, !tbaa !10
  %29 = zext i32 %28 to i64
  %30 = getelementptr inbounds nuw i8, ptr %27, i64 %29
  %31 = load i32, ptr %6, align 4, !tbaa !10
  %32 = sub i32 112, %31
  %33 = zext i32 %32 to i64
  call void @llvm.memset.p0.i64(ptr align 1 %30, i8 0, i64 %33, i1 false)
  br label %55

34:                                               ; preds = %2
  %35 = load ptr, ptr %3, align 8, !tbaa !3
  %36 = getelementptr inbounds nuw %struct.mbedtls_sha512_context, ptr %35, i32 0, i32 2
  %37 = getelementptr inbounds [128 x i8], ptr %36, i64 0, i64 0
  %38 = load i32, ptr %6, align 4, !tbaa !10
  %39 = zext i32 %38 to i64
  %40 = getelementptr inbounds nuw i8, ptr %37, i64 %39
  %41 = load i32, ptr %6, align 4, !tbaa !10
  %42 = sub i32 128, %41
  %43 = zext i32 %42 to i64
  call void @llvm.memset.p0.i64(ptr align 1 %40, i8 0, i64 %43, i1 false)
  %44 = load ptr, ptr %3, align 8, !tbaa !3
  %45 = load ptr, ptr %3, align 8, !tbaa !3
  %46 = getelementptr inbounds nuw %struct.mbedtls_sha512_context, ptr %45, i32 0, i32 2
  %47 = getelementptr inbounds [128 x i8], ptr %46, i64 0, i64 0
  %48 = call i32 @mbedtls_internal_sha512_process(ptr noundef %44, ptr noundef %47)
  store i32 %48, ptr %5, align 4, !tbaa !10
  %49 = icmp ne i32 %48, 0
  br i1 %49, label %50, label %51

50:                                               ; preds = %34
  br label %155

51:                                               ; preds = %34
  %52 = load ptr, ptr %3, align 8, !tbaa !3
  %53 = getelementptr inbounds nuw %struct.mbedtls_sha512_context, ptr %52, i32 0, i32 2
  %54 = getelementptr inbounds [128 x i8], ptr %53, i64 0, i64 0
  call void @llvm.memset.p0.i64(ptr align 8 %54, i8 0, i64 112, i1 false)
  br label %55

55:                                               ; preds = %51, %24
  %56 = load ptr, ptr %3, align 8, !tbaa !3
  %57 = getelementptr inbounds nuw %struct.mbedtls_sha512_context, ptr %56, i32 0, i32 0
  %58 = getelementptr inbounds [2 x i64], ptr %57, i64 0, i64 0
  %59 = load i64, ptr %58, align 8, !tbaa !12
  %60 = lshr i64 %59, 61
  %61 = load ptr, ptr %3, align 8, !tbaa !3
  %62 = getelementptr inbounds nuw %struct.mbedtls_sha512_context, ptr %61, i32 0, i32 0
  %63 = getelementptr inbounds [2 x i64], ptr %62, i64 0, i64 1
  %64 = load i64, ptr %63, align 8, !tbaa !12
  %65 = shl i64 %64, 3
  %66 = or i64 %60, %65
  store i64 %66, ptr %7, align 8, !tbaa !12
  %67 = load ptr, ptr %3, align 8, !tbaa !3
  %68 = getelementptr inbounds nuw %struct.mbedtls_sha512_context, ptr %67, i32 0, i32 0
  %69 = getelementptr inbounds [2 x i64], ptr %68, i64 0, i64 0
  %70 = load i64, ptr %69, align 8, !tbaa !12
  %71 = shl i64 %70, 3
  store i64 %71, ptr %8, align 8, !tbaa !12
  %72 = load ptr, ptr %3, align 8, !tbaa !3
  %73 = getelementptr inbounds nuw %struct.mbedtls_sha512_context, ptr %72, i32 0, i32 2
  %74 = getelementptr inbounds [128 x i8], ptr %73, i64 0, i64 0
  %75 = getelementptr inbounds i8, ptr %74, i64 112
  %76 = load i64, ptr %7, align 8, !tbaa !12
  %77 = call i64 @llvm.bswap.i64(i64 %76)
  call void @mbedtls_put_unaligned_uint64(ptr noundef %75, i64 noundef %77)
  %78 = load ptr, ptr %3, align 8, !tbaa !3
  %79 = getelementptr inbounds nuw %struct.mbedtls_sha512_context, ptr %78, i32 0, i32 2
  %80 = getelementptr inbounds [128 x i8], ptr %79, i64 0, i64 0
  %81 = getelementptr inbounds i8, ptr %80, i64 120
  %82 = load i64, ptr %8, align 8, !tbaa !12
  %83 = call i64 @llvm.bswap.i64(i64 %82)
  call void @mbedtls_put_unaligned_uint64(ptr noundef %81, i64 noundef %83)
  %84 = load ptr, ptr %3, align 8, !tbaa !3
  %85 = load ptr, ptr %3, align 8, !tbaa !3
  %86 = getelementptr inbounds nuw %struct.mbedtls_sha512_context, ptr %85, i32 0, i32 2
  %87 = getelementptr inbounds [128 x i8], ptr %86, i64 0, i64 0
  %88 = call i32 @mbedtls_internal_sha512_process(ptr noundef %84, ptr noundef %87)
  store i32 %88, ptr %5, align 4, !tbaa !10
  %89 = icmp ne i32 %88, 0
  br i1 %89, label %90, label %91

90:                                               ; preds = %55
  br label %155

91:                                               ; preds = %55
  %92 = load ptr, ptr %4, align 8, !tbaa !16
  %93 = getelementptr inbounds i8, ptr %92, i64 0
  %94 = load ptr, ptr %3, align 8, !tbaa !3
  %95 = getelementptr inbounds nuw %struct.mbedtls_sha512_context, ptr %94, i32 0, i32 1
  %96 = getelementptr inbounds [8 x i64], ptr %95, i64 0, i64 0
  %97 = load i64, ptr %96, align 8, !tbaa !12
  %98 = call i64 @llvm.bswap.i64(i64 %97)
  call void @mbedtls_put_unaligned_uint64(ptr noundef %93, i64 noundef %98)
  %99 = load ptr, ptr %4, align 8, !tbaa !16
  %100 = getelementptr inbounds i8, ptr %99, i64 8
  %101 = load ptr, ptr %3, align 8, !tbaa !3
  %102 = getelementptr inbounds nuw %struct.mbedtls_sha512_context, ptr %101, i32 0, i32 1
  %103 = getelementptr inbounds [8 x i64], ptr %102, i64 0, i64 1
  %104 = load i64, ptr %103, align 8, !tbaa !12
  %105 = call i64 @llvm.bswap.i64(i64 %104)
  call void @mbedtls_put_unaligned_uint64(ptr noundef %100, i64 noundef %105)
  %106 = load ptr, ptr %4, align 8, !tbaa !16
  %107 = getelementptr inbounds i8, ptr %106, i64 16
  %108 = load ptr, ptr %3, align 8, !tbaa !3
  %109 = getelementptr inbounds nuw %struct.mbedtls_sha512_context, ptr %108, i32 0, i32 1
  %110 = getelementptr inbounds [8 x i64], ptr %109, i64 0, i64 2
  %111 = load i64, ptr %110, align 8, !tbaa !12
  %112 = call i64 @llvm.bswap.i64(i64 %111)
  call void @mbedtls_put_unaligned_uint64(ptr noundef %107, i64 noundef %112)
  %113 = load ptr, ptr %4, align 8, !tbaa !16
  %114 = getelementptr inbounds i8, ptr %113, i64 24
  %115 = load ptr, ptr %3, align 8, !tbaa !3
  %116 = getelementptr inbounds nuw %struct.mbedtls_sha512_context, ptr %115, i32 0, i32 1
  %117 = getelementptr inbounds [8 x i64], ptr %116, i64 0, i64 3
  %118 = load i64, ptr %117, align 8, !tbaa !12
  %119 = call i64 @llvm.bswap.i64(i64 %118)
  call void @mbedtls_put_unaligned_uint64(ptr noundef %114, i64 noundef %119)
  %120 = load ptr, ptr %4, align 8, !tbaa !16
  %121 = getelementptr inbounds i8, ptr %120, i64 32
  %122 = load ptr, ptr %3, align 8, !tbaa !3
  %123 = getelementptr inbounds nuw %struct.mbedtls_sha512_context, ptr %122, i32 0, i32 1
  %124 = getelementptr inbounds [8 x i64], ptr %123, i64 0, i64 4
  %125 = load i64, ptr %124, align 8, !tbaa !12
  %126 = call i64 @llvm.bswap.i64(i64 %125)
  call void @mbedtls_put_unaligned_uint64(ptr noundef %121, i64 noundef %126)
  %127 = load ptr, ptr %4, align 8, !tbaa !16
  %128 = getelementptr inbounds i8, ptr %127, i64 40
  %129 = load ptr, ptr %3, align 8, !tbaa !3
  %130 = getelementptr inbounds nuw %struct.mbedtls_sha512_context, ptr %129, i32 0, i32 1
  %131 = getelementptr inbounds [8 x i64], ptr %130, i64 0, i64 5
  %132 = load i64, ptr %131, align 8, !tbaa !12
  %133 = call i64 @llvm.bswap.i64(i64 %132)
  call void @mbedtls_put_unaligned_uint64(ptr noundef %128, i64 noundef %133)
  %134 = load ptr, ptr %3, align 8, !tbaa !3
  %135 = getelementptr inbounds nuw %struct.mbedtls_sha512_context, ptr %134, i32 0, i32 3
  %136 = load i32, ptr %135, align 8, !tbaa !14
  store i32 %136, ptr %9, align 4, !tbaa !10
  %137 = load i32, ptr %9, align 4, !tbaa !10
  %138 = icmp ne i32 %137, 0
  br i1 %138, label %154, label %139

139:                                              ; preds = %91
  %140 = load ptr, ptr %4, align 8, !tbaa !16
  %141 = getelementptr inbounds i8, ptr %140, i64 48
  %142 = load ptr, ptr %3, align 8, !tbaa !3
  %143 = getelementptr inbounds nuw %struct.mbedtls_sha512_context, ptr %142, i32 0, i32 1
  %144 = getelementptr inbounds [8 x i64], ptr %143, i64 0, i64 6
  %145 = load i64, ptr %144, align 8, !tbaa !12
  %146 = call i64 @llvm.bswap.i64(i64 %145)
  call void @mbedtls_put_unaligned_uint64(ptr noundef %141, i64 noundef %146)
  %147 = load ptr, ptr %4, align 8, !tbaa !16
  %148 = getelementptr inbounds i8, ptr %147, i64 56
  %149 = load ptr, ptr %3, align 8, !tbaa !3
  %150 = getelementptr inbounds nuw %struct.mbedtls_sha512_context, ptr %149, i32 0, i32 1
  %151 = getelementptr inbounds [8 x i64], ptr %150, i64 0, i64 7
  %152 = load i64, ptr %151, align 8, !tbaa !12
  %153 = call i64 @llvm.bswap.i64(i64 %152)
  call void @mbedtls_put_unaligned_uint64(ptr noundef %148, i64 noundef %153)
  br label %154

154:                                              ; preds = %139, %91
  store i32 0, ptr %5, align 4, !tbaa !10
  br label %155

155:                                              ; preds = %154, %90, %50
  %156 = load ptr, ptr %3, align 8, !tbaa !3
  call void @mbedtls_sha512_free(ptr noundef %156)
  %157 = load i32, ptr %5, align 4, !tbaa !10
  call void @llvm.lifetime.end.p0(i64 4, ptr %9) #10
  call void @llvm.lifetime.end.p0(i64 8, ptr %8) #10
  call void @llvm.lifetime.end.p0(i64 8, ptr %7) #10
  call void @llvm.lifetime.end.p0(i64 4, ptr %6) #10
  call void @llvm.lifetime.end.p0(i64 4, ptr %5) #10
  ret i32 %157
}