; Function Attrs: nounwind uwtable
define hidden noundef i32 @mbedtls_sha512_finish(ptr noundef %0, ptr noundef writeonly captures(none) initializes((0, 48)) %1) local_unnamed_addr #2 {
  %3 = load i64, ptr %0, align 8, !tbaa !9
  %4 = trunc i64 %3 to i32
  %5 = and i32 %4, 127
  %6 = getelementptr inbounds nuw i8, ptr %0, i64 80
  %7 = and i64 %3, 127
  %8 = getelementptr inbounds nuw [128 x i8], ptr %6, i64 0, i64 %7
  store i8 -128, ptr %8, align 1, !tbaa !4
  %9 = icmp samesign ult i32 %5, 112
  %10 = and i64 %3, 127
  %11 = getelementptr inbounds nuw i8, ptr %6, i64 %10
  %12 = getelementptr inbounds nuw i8, ptr %11, i64 1
  br i1 %9, label %13, label %16

13:                                               ; preds = %2
  %14 = sub nuw nsw i32 111, %5
  %15 = zext nneg i32 %14 to i64
  tail call void @llvm.memset.p0.i64(ptr nonnull align 1 %12, i8 0, i64 %15, i1 false)
  br label %20

16:                                               ; preds = %2
  %17 = xor i32 %5, 127
  %18 = zext nneg i32 %17 to i64
  tail call void @llvm.memset.p0.i64(ptr nonnull align 1 %12, i8 0, i64 %18, i1 false)
  %19 = tail call i32 @mbedtls_internal_sha512_process(ptr noundef nonnull %0, ptr noundef nonnull %6)
  tail call void @llvm.memset.p0.i64(ptr noundef nonnull align 8 dereferenceable(112) %6, i8 0, i64 112, i1 false)
  %.pre = load i64, ptr %0, align 8, !tbaa !9
  br label %20

20:                                               ; preds = %16, %13
  %21 = phi i64 [ %.pre, %16 ], [ %3, %13 ]
  %22 = getelementptr inbounds nuw i8, ptr %0, i64 8
  %23 = load i64, ptr %22, align 8, !tbaa !9
  %24 = tail call i64 @llvm.fshl.i64(i64 %23, i64 %21, i64 3)
  %25 = shl i64 %21, 3
  %26 = getelementptr inbounds nuw i8, ptr %0, i64 192
  %27 = tail call i64 @llvm.bswap.i64(i64 %24)
  store i64 %27, ptr %26, align 1
  %28 = getelementptr inbounds nuw i8, ptr %0, i64 200
  %29 = tail call i64 @llvm.bswap.i64(i64 %25)
  store i64 %29, ptr %28, align 1
  %30 = tail call i32 @mbedtls_internal_sha512_process(ptr noundef nonnull %0, ptr noundef nonnull %6)
  %31 = getelementptr inbounds nuw i8, ptr %0, i64 16
  %32 = load i64, ptr %31, align 8, !tbaa !9
  %33 = tail call i64 @llvm.bswap.i64(i64 %32)
  store i64 %33, ptr %1, align 1
  %34 = getelementptr inbounds nuw i8, ptr %1, i64 8
  %35 = getelementptr inbounds nuw i8, ptr %0, i64 24
  %36 = load i64, ptr %35, align 8, !tbaa !9
  %37 = tail call i64 @llvm.bswap.i64(i64 %36)
  store i64 %37, ptr %34, align 1
  %38 = getelementptr inbounds nuw i8, ptr %1, i64 16
  %39 = getelementptr inbounds nuw i8, ptr %0, i64 32
  %40 = load i64, ptr %39, align 8, !tbaa !9
  %41 = tail call i64 @llvm.bswap.i64(i64 %40)
  store i64 %41, ptr %38, align 1
  %42 = getelementptr inbounds nuw i8, ptr %1, i64 24
  %43 = getelementptr inbounds nuw i8, ptr %0, i64 40
  %44 = load i64, ptr %43, align 8, !tbaa !9
  %45 = tail call i64 @llvm.bswap.i64(i64 %44)
  store i64 %45, ptr %42, align 1
  %46 = getelementptr inbounds nuw i8, ptr %1, i64 32
  %47 = getelementptr inbounds nuw i8, ptr %0, i64 48
  %48 = load i64, ptr %47, align 8, !tbaa !9
  %49 = tail call i64 @llvm.bswap.i64(i64 %48)
  store i64 %49, ptr %46, align 1
  %50 = getelementptr inbounds nuw i8, ptr %1, i64 40
  %51 = getelementptr inbounds nuw i8, ptr %0, i64 56
  %52 = load i64, ptr %51, align 8, !tbaa !9
  %53 = tail call i64 @llvm.bswap.i64(i64 %52)
  store i64 %53, ptr %50, align 1
  %54 = getelementptr inbounds nuw i8, ptr %0, i64 208
  %55 = load i32, ptr %54, align 8, !tbaa !11
  %.not = icmp eq i32 %55, 0
  br i1 %.not, label %56, label %mbedtls_sha512_free.exit

56:                                               ; preds = %20
  %57 = getelementptr inbounds nuw i8, ptr %1, i64 48
  %58 = getelementptr inbounds nuw i8, ptr %0, i64 64
  %59 = load i64, ptr %58, align 8, !tbaa !9
  %60 = tail call i64 @llvm.bswap.i64(i64 %59)
  store i64 %60, ptr %57, align 1
  %61 = getelementptr inbounds nuw i8, ptr %1, i64 56
  %62 = getelementptr inbounds nuw i8, ptr %0, i64 72
  %63 = load i64, ptr %62, align 8, !tbaa !9
  %64 = tail call i64 @llvm.bswap.i64(i64 %63)
  store i64 %64, ptr %61, align 1
  br label %mbedtls_sha512_free.exit

mbedtls_sha512_free.exit:                         ; preds = %20, %56
  tail call void @mbedtls_platform_zeroize(ptr noundef nonnull %0, i64 noundef 216) #14
  ret i32 0
}